target datalayout = "e-m:e-p270:32:32-p271:32:32-p272:64:64-i64:64-i128:128-f80:128-n8:16:32:64-S128"
target triple = "x86_64-pc-linux-gnu"

@whereToSendOutput = dso_local global i32 1, align 4
@DoingCommandRead = internal global i8 0, align 1
@InterruptPending = external global i32, align 4
@ProcDiePending = external global i32, align 4
@MyLatch = external global ptr, align 8
@proc_exit_inprogress = external global i8, align 1
@pgStatSessionEndCause = external global i32, align 4

; Function Attrs: nounwind uwtable
define dso_local void @die(i32 noundef %0) #0 {
  %2 = alloca i32, align 4
  store i32 %0, ptr %2, align 4
  %3 = load i8, ptr @proc_exit_inprogress, align 1, !range !4, !noundef !5
  %4 = trunc i8 %3 to i1
  br i1 %4, label %6, label %5

5:                                                ; preds = %1
  store volatile i32 1, ptr @InterruptPending, align 4
  store volatile i32 1, ptr @ProcDiePending, align 4
  br label %6

6:                                                ; preds = %5, %1
  store i32 4, ptr @pgStatSessionEndCause, align 4
  %7 = load ptr, ptr @MyLatch, align 8
  call void @SetLatch(ptr noundef %7)
  %8 = load i8, ptr @DoingCommandRead, align 1, !range !4, !noundef !5
  %9 = trunc i8 %8 to i1
  br i1 %9, label %10, label %14

10:                                               ; preds = %6
  %11 = load i32, ptr @whereToSendOutput, align 4
  %12 = icmp ne i32 %11, 2
  br i1 %12, label %13, label %14

13:                                               ; preds = %10
  call void @ProcessInterrupts()
  br label %14

14:                                               ; preds = %13, %10, %6
  ret void
}