; Function Attrs: nounwind uwtable
define dso_local void @die(i32 %0) #0 {
  %2 = load i8, ptr @proc_exit_inprogress, align 1, !range !5, !noundef !6
  %3 = trunc nuw i8 %2 to i1
  br i1 %3, label %5, label %4

4:                                                ; preds = %1
  store volatile i32 1, ptr @InterruptPending, align 4
  store volatile i32 1, ptr @ProcDiePending, align 4
  br label %5

5:                                                ; preds = %4, %1
  store i32 4, ptr @pgStatSessionEndCause, align 4
  %6 = load ptr, ptr @MyLatch, align 8
  tail call void @SetLatch(ptr noundef %6) #22
  %.b2 = load i1, ptr @DoingCommandRead, align 1
  %7 = load i32, ptr @whereToSendOutput, align 4
  %8 = icmp ne i32 %7, 2
  %or.cond = select i1 %.b2, i1 %8, i1 false
  br i1 %or.cond, label %9, label %10

9:                                                ; preds = %5
  tail call void @ProcessInterrupts()
  br label %10

10:                                               ; preds = %9, %5
  ret void
}